; Function Attrs: nounwind uwtable
define ptr @l_Lean_isEnumType___rarg(ptr noundef %0, ptr noundef %1, ptr noundef %2, ptr noundef %3) #0 {
  %5 = getelementptr inbounds nuw i8, ptr %0, i64 16
  %6 = load ptr, ptr %5, align 8, !tbaa !10
  %7 = ptrtoint ptr %6 to i64
  %8 = and i64 %7, 1
  %.not = icmp eq i64 %8, 0
  br i1 %.not, label %9, label %lean_inc.exit25

9:                                                ; preds = %4
  %.val.i = load i32, ptr %6, align 4, !tbaa !4
  %10 = icmp sgt i32 %.val.i, 0
  br i1 %10, label %11, label %13, !prof !9

11:                                               ; preds = %9
  %12 = add nuw i32 %.val.i, 1
  store i32 %12, ptr %6, align 4, !tbaa !4
  br label %lean_inc.exit25

13:                                               ; preds = %9
  %.not.i = icmp eq i32 %.val.i, 0
  br i1 %.not.i, label %lean_inc.exit25, label %14

14:                                               ; preds = %13
  tail call void @lean_inc_ref_cold(ptr noundef nonnull %6) #4
  br label %lean_inc.exit25

lean_inc.exit25:                                  ; preds = %14, %13, %11, %4
  %15 = ptrtoint ptr %2 to i64
  %16 = and i64 %15, 1
  %.not38 = icmp eq i64 %16, 0
  br i1 %.not38, label %17, label %lean_inc.exit24

17:                                               ; preds = %lean_inc.exit25
  %.val.i26 = load i32, ptr %2, align 4, !tbaa !4
  %18 = icmp sgt i32 %.val.i26, 0
  br i1 %18, label %19, label %21, !prof !9

19:                                               ; preds = %17
  %20 = add nuw i32 %.val.i26, 1
  store i32 %20, ptr %2, align 4, !tbaa !4
  br label %lean_inc.exit24

21:                                               ; preds = %17
  %.not.i27 = icmp eq i32 %.val.i26, 0
  br i1 %.not.i27, label %lean_inc.exit24, label %22

22:                                               ; preds = %21
  tail call void @lean_inc_ref_cold(ptr noundef nonnull %2) #4
  br label %lean_inc.exit24

lean_inc.exit24:                                  ; preds = %22, %21, %19, %lean_inc.exit25
  %23 = ptrtoint ptr %1 to i64
  %24 = and i64 %23, 1
  %.not39 = icmp eq i64 %24, 0
  br i1 %.not39, label %25, label %lean_inc.exit23

25:                                               ; preds = %lean_inc.exit24
  %.val.i29 = load i32, ptr %1, align 4, !tbaa !4
  %26 = icmp sgt i32 %.val.i29, 0
  br i1 %26, label %27, label %29, !prof !9

27:                                               ; preds = %25
  %28 = add nuw i32 %.val.i29, 1
  store i32 %28, ptr %1, align 4, !tbaa !4
  br label %lean_inc.exit23

29:                                               ; preds = %25
  %.not.i30 = icmp eq i32 %.val.i29, 0
  br i1 %.not.i30, label %lean_inc.exit23, label %30

30:                                               ; preds = %29
  tail call void @lean_inc_ref_cold(ptr noundef nonnull %1) #4
  br label %lean_inc.exit23

lean_inc.exit23:                                  ; preds = %30, %29, %27, %lean_inc.exit24
  %31 = ptrtoint ptr %0 to i64
  %32 = and i64 %31, 1
  %.not40 = icmp eq i64 %32, 0
  br i1 %.not40, label %33, label %lean_inc.exit22

33:                                               ; preds = %lean_inc.exit23
  %.val.i32 = load i32, ptr %0, align 4, !tbaa !4
  %34 = icmp sgt i32 %.val.i32, 0
  br i1 %34, label %35, label %37, !prof !9

35:                                               ; preds = %33
  %36 = add nuw i32 %.val.i32, 1
  store i32 %36, ptr %0, align 4, !tbaa !4
  br label %lean_inc.exit22

37:                                               ; preds = %33
  %.not.i33 = icmp eq i32 %.val.i32, 0
  br i1 %.not.i33, label %lean_inc.exit22, label %38

38:                                               ; preds = %37
  tail call void @lean_inc_ref_cold(ptr noundef nonnull %0) #4
  br label %lean_inc.exit22

lean_inc.exit22:                                  ; preds = %38, %37, %35, %lean_inc.exit23
  %39 = tail call ptr @l_Lean_getConstInfo___rarg(ptr noundef nonnull %0, ptr noundef %1, ptr noundef %2, ptr noundef %3)
  br i1 %.not, label %40, label %lean_inc.exit

40:                                               ; preds = %lean_inc.exit22
  %.val.i35 = load i32, ptr %6, align 4, !tbaa !4
  %41 = icmp sgt i32 %.val.i35, 0
  br i1 %41, label %42, label %44, !prof !9

42:                                               ; preds = %40
  %43 = add nuw i32 %.val.i35, 1
  store i32 %43, ptr %6, align 4, !tbaa !4
  br label %lean_inc.exit

44:                                               ; preds = %40
  %.not.i36 = icmp eq i32 %.val.i35, 0
  br i1 %.not.i36, label %lean_inc.exit, label %45

45:                                               ; preds = %44
  tail call void @lean_inc_ref_cold(ptr noundef nonnull %6) #4
  br label %lean_inc.exit

lean_inc.exit:                                    ; preds = %45, %44, %42, %lean_inc.exit22
  tail call void @lean_inc_heartbeat() #4
  %46 = tail call noalias ptr @mi_malloc_small(i64 noundef 56) #4
  %47 = icmp eq ptr %46, null
  br i1 %47, label %48, label %lean_alloc_closure.exit

48:                                               ; preds = %lean_inc.exit
  tail call void @lean_internal_panic_out_of_memory() #5
  unreachable

lean_alloc_closure.exit:                          ; preds = %lean_inc.exit
  %49 = getelementptr inbounds nuw i8, ptr %46, i64 4
  store i32 1, ptr %46, align 4, !tbaa !4
  store i32 -184549320, ptr %49, align 4
  %50 = getelementptr inbounds nuw i8, ptr %46, i64 8
  store ptr @l_Lean_isEnumType___rarg___lambda__1, ptr %50, align 8, !tbaa !10
  %51 = getelementptr inbounds nuw i8, ptr %46, i64 16
  store i16 5, ptr %51, align 8, !tbaa !12
  %52 = getelementptr inbounds nuw i8, ptr %46, i64 18
  store i16 4, ptr %52, align 2, !tbaa !12
  %53 = getelementptr inbounds nuw i8, ptr %46, i64 24
  store ptr %0, ptr %53, align 8, !tbaa !10
  %54 = getelementptr inbounds nuw i8, ptr %46, i64 32
  store ptr %1, ptr %54, align 8, !tbaa !10
  %55 = getelementptr inbounds nuw i8, ptr %46, i64 40
  store ptr %2, ptr %55, align 8, !tbaa !10
  %56 = getelementptr inbounds nuw i8, ptr %46, i64 48
  store ptr %6, ptr %56, align 8, !tbaa !10
  %57 = tail call ptr @lean_apply_4(ptr noundef %6, ptr noundef nonnull inttoptr (i64 1 to ptr), ptr noundef nonnull inttoptr (i64 1 to ptr), ptr noundef %39, ptr noundef nonnull %46) #4
  ret ptr %57
}